; Function Attrs: mustprogress nofree norecurse nosync nounwind willreturn memory(readwrite, inaccessiblemem: none) uwtable
define void @_ZN10open_spiel13markov_soccer17MarkovSoccerState8SetFieldEiic(ptr nocapture noundef nonnull align 8 dereferenceable(144) %0, i32 noundef %1, i32 noundef %2, i8 noundef signext %3) local_unnamed_addr #6 align 2 {
  %5 = getelementptr inbounds nuw i8, ptr %0, i64 120
  %6 = getelementptr inbounds nuw i8, ptr %0, i64 64
  %7 = load ptr, ptr %6, align 8
  %8 = getelementptr inbounds nuw i8, ptr %7, i64 4
  %9 = load i32, ptr %8, align 4
  %10 = mul nsw i32 %9, %1
  %11 = add nsw i32 %10, %2
  %12 = sext i32 %11 to i64
  %13 = load ptr, ptr %5, align 8
  %14 = getelementptr inbounds i8, ptr %13, i64 %12
  store i8 %3, ptr %14, align 1
  %15 = and i8 %3, -33
  switch i8 %15, label %19 [
    i8 65, label %.sink.split
    i8 66, label %16
  ]

16:                                               ; preds = %4
  br label %.sink.split

.sink.split:                                      ; preds = %4, %16
  %.sink28 = phi i64 [ 92, %16 ], [ 88, %4 ]
  %.sink27 = phi i64 [ 100, %16 ], [ 96, %4 ]
  %17 = getelementptr inbounds i8, ptr %0, i64 %.sink28
  store i32 %1, ptr %17, align 4
  %18 = getelementptr inbounds i8, ptr %0, i64 %.sink27
  store i32 %2, ptr %18, align 4
  br label %19

19:                                               ; preds = %.sink.split, %4
  switch i8 %3, label %23 [
    i8 79, label %20
    i8 66, label %20
    i8 65, label %20
  ]

20:                                               ; preds = %19, %19, %19
  %21 = getelementptr inbounds nuw i8, ptr %0, i64 104
  store i32 %1, ptr %21, align 8
  %22 = getelementptr inbounds nuw i8, ptr %0, i64 108
  store i32 %2, ptr %22, align 4
  br label %23

23:                                               ; preds = %19, %20
  ret void
}